target datalayout = "e-m:e-p270:32:32-p271:32:32-p272:64:64-i64:64-i128:128-f80:128-n8:16:32:64-S128"
target triple = "x86_64-pc-linux-gnu"

%struct.cycleCtr = type { i32, i32, i32 }

@.str = private unnamed_addr constant [17 x i8] c"maxNCycles = %d\0A\00", align 1
@.str.1 = private unnamed_addr constant [17 x i8] c"minNCycles = %d\0A\00", align 1
@.str.2 = private unnamed_addr constant [24 x i8] c"average NCycles = %.3f\0A\00", align 1

; Function Attrs: nounwind uwtable
define void @printCCtrInfo(ptr noundef %0, i32 noundef %1) #0 {
  %3 = alloca ptr, align 8
  %4 = alloca i32, align 4
  store ptr %0, ptr %3, align 8, !tbaa !14
  store i32 %1, ptr %4, align 4, !tbaa !8
  %5 = load ptr, ptr %3, align 8, !tbaa !14
  %6 = getelementptr inbounds nuw %struct.cycleCtr, ptr %5, i32 0, i32 1
  %7 = load i32, ptr %6, align 4, !tbaa !24
  %8 = call i32 (ptr, ...) @printf(ptr noundef @.str, i32 noundef %7)
  %9 = load ptr, ptr %3, align 8, !tbaa !14
  %10 = getelementptr inbounds nuw %struct.cycleCtr, ptr %9, i32 0, i32 2
  %11 = load i32, ptr %10, align 4, !tbaa !25
  %12 = call i32 (ptr, ...) @printf(ptr noundef @.str.1, i32 noundef %11)
  %13 = load ptr, ptr %3, align 8, !tbaa !14
  %14 = getelementptr inbounds nuw %struct.cycleCtr, ptr %13, i32 0, i32 0
  %15 = load i32, ptr %14, align 4, !tbaa !22
  %16 = sitofp i32 %15 to double
  %17 = load i32, ptr %4, align 4, !tbaa !8
  %18 = sitofp i32 %17 to double
  %19 = fdiv double %16, %18
  %20 = call i32 (ptr, ...) @printf(ptr noundef @.str.2, double noundef %19)
  ret void
}